Certificate:
    Data:
        Version: 3 (0x2)
        Serial Number:
            35:b9:0a:2a:7b:84:2e:4b:d9:d6:b9:ff:d5:fe:35:10:ad:a3:64:9b
        Signature Algorithm: ecdsa-with-SHA256
        Issuer: CN = palmer, C = na, O = nico.palmer, ST = nico.palmer, L = na, OU = nico.palmer, emailAddress = nick.palmer@hotmail.com
        Validity
            Not Before: Dec  9 05:42:26 2022 GMT
            Not After : Dec  8 05:42:26 2024 GMT
        Subject: CN = palmer, C = na, O = nico.palmer, ST = nico.palmer, L = na, OU = nico.palmer, emailAddress = nick.palmer@hotmail.com
        Subject Public Key Info:
            Public Key Algorithm: id-ecPublicKey
                Public-Key: (256 bit)
                pub:
                    04:f2:68:b2:67:5f:34:a5:23:1c:84:f7:24:20:95:
                    77:79:d5:75:84:32:22:e6:bf:7f:a2:37:79:6f:cf:
                    e2:f1:bb:11:84:aa:98:d9:fd:6a:8d:56:e5:2a:c4:
                    ad:b2:27:d5:2b:aa:b8:e4:e6:97:ac:17:11:56:87:
                    5f:ec:5b:22:d0
                ASN1 OID: prime256v1
                NIST CURVE: P-256
        X509v3 extensions:
            X509v3 Subject Key Identifier: 
                B4:14:EB:9D:7E:E2:1A:F5:6E:09:FB:78:FC:FE:1E:BE:EB:2D:62:92
            X509v3 Authority Key Identifier: 
                keyid:B4:14:EB:9D:7E:E2:1A:F5:6E:09:FB:78:FC:FE:1E:BE:EB:2D:62:92

            X509v3 Basic Constraints: critical
                CA:TRUE
            X509v3 Subject Alternative Name: 
                DNS:utes.phadnis.com
            X509v3 Certificate Policies: 
                Policy: 1.2.3.4

    Signature Algorithm: ecdsa-with-SHA256
         30:44:02:20:44:4b:e2:ab:67:6a:ce:5a:db:c9:d9:48:10:ed:
         56:8a:ed:a8:e5:ab:47:07:57:5f:7a:df:4d:fd:ce:28:00:f9:
         02:20:37:a5:1e:70:c4:27:81:16:fb:13:56:61:4c:5b:7a:d8:
         44:b3:18:73:54:c9:1c:8c:62:71:71:76:8b:9c:84:57
-----BEGIN CERTIFICATE-----
MIICsTCCAligAwIBAgIUNbkKKnuELkvZ1rn/1f41EK2jZJswCgYIKoZIzj0EAwIw
gZUxDzANBgNVBAMMBnBhbG1lcjELMAkGA1UEBhMCbmExFDASBgNVBAoMC25pY28u
cGFsbWVyMRQwEgYDVQQIDAtuaWNvLnBhbG1lcjELMAkGA1UEBwwCbmExFDASBgNV
BAsMC25pY28ucGFsbWVyMSYwJAYJKoZIhvcNAQkBFhduaWNrLnBhbG1lckBob3Rt
YWlsLmNvbTAeFw0yMjEyMDkwNTQyMjZaFw0yNDEyMDgwNTQyMjZaMIGVMQ8wDQYD
VQQDDAZwYWxtZXIxCzAJBgNVBAYTAm5hMRQwEgYDVQQKDAtuaWNvLnBhbG1lcjEU
MBIGA1UECAwLbmljby5wYWxtZXIxCzAJBgNVBAcMAm5hMRQwEgYDVQQLDAtuaWNv
LnBhbG1lcjEmMCQGCSqGSIb3DQEJARYXbmljay5wYWxtZXJAaG90bWFpbC5jb20w
WTATBgcqhkjOPQIBBggqhkjOPQMBBwNCAATyaLJnXzSlIxyE9yQglXd51XWEMiLm
v3+iN3lvz+LxuxGEqpjZ/WqNVuUqxK2yJ9Urqrjk5pesFxFWh1/sWyLQo4GDMIGA
MB0GA1UdDgQWBBS0FOudfuIa9W4J+3j8/h6+6y1ikjAfBgNVHSMEGDAWgBS0FOud
fuIa9W4J+3j8/h6+6y1ikjAPBgNVHRMBAf8EBTADAQH/MBsGA1UdEQQUMBKCEHV0
ZXMucGhhZG5pcy5jb20wEAYDVR0gBAkwBzAFBgMqAwQwCgYIKoZIzj0EAwIDRwAw
RAIgREviq2dqzlrbydlIEO1Wiu2o5atHB1dfet9N/c4oAPkCIDelHnDEJ4EW+xNW
YUxbethEsxhzVMkcjGJxcXaLnIRX
-----END CERTIFICATE-----
